target datalayout = "e-m:e-p270:32:32-p271:32:32-p272:64:64-i64:64-i128:128-f80:128-n8:16:32:64-S128"
target triple = "x86_64-pc-linux-gnu"

%struct.FxuMatrix = type { %struct.FxuListCube, %struct.FxuListVar, ptr, ptr, i32, i32, i32, ptr, %struct.FxuListSingle, ptr, i32, i32, ptr, ptr, ptr, ptr, ptr, ptr, ptr, i32, i32, i32, i32, ptr }
%struct.FxuListCube = type { ptr, ptr, i32 }
%struct.FxuListVar = type { ptr, ptr, i32 }
%struct.FxuListSingle = type { ptr, ptr, i32 }
%struct.FxuListLit = type { ptr, ptr, i32 }
%struct.FxuVar = type { i32, i32, ptr, ptr, %struct.FxuListLit, ptr, ptr, ptr }

; Function Attrs: nounwind uwtable
define void @Fxu_MatrixRingVarsUnmark(ptr noundef %0) #0 {
  %2 = alloca ptr, align 8
  %3 = alloca ptr, align 8
  %4 = alloca ptr, align 8
  store ptr %0, ptr %2, align 8, !tbaa !10
  call void @llvm.lifetime.start.p0(i64 8, ptr %3) #3
  call void @llvm.lifetime.start.p0(i64 8, ptr %4) #3
  %5 = load ptr, ptr %2, align 8, !tbaa !10
  %6 = getelementptr inbounds nuw %struct.FxuMatrix, ptr %5, i32 0, i32 16
  %7 = load ptr, ptr %6, align 8, !tbaa !59
  %8 = icmp ne ptr %7, null
  br i1 %8, label %9, label %40

9:                                                ; preds = %1
  %10 = load ptr, ptr %2, align 8, !tbaa !10
  %11 = getelementptr inbounds nuw %struct.FxuMatrix, ptr %10, i32 0, i32 16
  %12 = load ptr, ptr %11, align 8, !tbaa !59
  store ptr %12, ptr %3, align 8, !tbaa !60
  %13 = load ptr, ptr %3, align 8, !tbaa !60
  %14 = icmp ne ptr %13, inttoptr (i64 1 to ptr)
  br i1 %14, label %15, label %19

15:                                               ; preds = %9
  %16 = load ptr, ptr %3, align 8, !tbaa !60
  %17 = getelementptr inbounds nuw %struct.FxuVar, ptr %16, i32 0, i32 7
  %18 = load ptr, ptr %17, align 8, !tbaa !61
  br label %20

19:                                               ; preds = %9
  br label %20

20:                                               ; preds = %19, %15
  %21 = phi ptr [ %18, %15 ], [ inttoptr (i64 1 to ptr), %19 ]
  store ptr %21, ptr %4, align 8, !tbaa !60
  br label %22

22:                                               ; preds = %37, %20
  %23 = load ptr, ptr %3, align 8, !tbaa !60
  %24 = icmp ne ptr %23, inttoptr (i64 1 to ptr)
  br i1 %24, label %25, label %39

25:                                               ; preds = %22
  %26 = load ptr, ptr %3, align 8, !tbaa !60
  %27 = getelementptr inbounds nuw %struct.FxuVar, ptr %26, i32 0, i32 7
  store ptr null, ptr %27, align 8, !tbaa !61
  br label %28

28:                                               ; preds = %25
  %29 = load ptr, ptr %4, align 8, !tbaa !60
  store ptr %29, ptr %3, align 8, !tbaa !60
  %30 = load ptr, ptr %3, align 8, !tbaa !60
  %31 = icmp ne ptr %30, inttoptr (i64 1 to ptr)
  br i1 %31, label %32, label %36

32:                                               ; preds = %28
  %33 = load ptr, ptr %3, align 8, !tbaa !60
  %34 = getelementptr inbounds nuw %struct.FxuVar, ptr %33, i32 0, i32 7
  %35 = load ptr, ptr %34, align 8, !tbaa !61
  br label %37

36:                                               ; preds = %28
  br label %37

37:                                               ; preds = %36, %32
  %38 = phi ptr [ %35, %32 ], [ inttoptr (i64 1 to ptr), %36 ]
  store ptr %38, ptr %4, align 8, !tbaa !60
  br label %22, !llvm.loop !63

39:                                               ; preds = %22
  br label %40

40:                                               ; preds = %39, %1
  %41 = load ptr, ptr %2, align 8, !tbaa !10
  %42 = getelementptr inbounds nuw %struct.FxuMatrix, ptr %41, i32 0, i32 16
  store ptr null, ptr %42, align 8, !tbaa !59
  %43 = load ptr, ptr %2, align 8, !tbaa !10
  %44 = getelementptr inbounds nuw %struct.FxuMatrix, ptr %43, i32 0, i32 17
  store ptr null, ptr %44, align 8, !tbaa !64
  call void @llvm.lifetime.end.p0(i64 8, ptr %4) #3
  call void @llvm.lifetime.end.p0(i64 8, ptr %3) #3
  ret void
}